target datalayout = "e-m:e-p270:32:32-p271:32:32-p272:64:64-i64:64-i128:128-f80:128-n8:16:32:64-S128"
target triple = "x86_64-pc-linux-gnu"

%"class.pstd::span" = type { ptr, i64 }
%"class.pstd::span.1" = type { ptr, i64 }

; Function Attrs: inlinehint mustprogress nounwind uwtable
define linkonce_odr dso_local noundef float @_ZN4pbrt18EvaluatePolynomialIffEET_S1_T0_(float noundef %0, float noundef %1) #7 comdat {
  %3 = alloca float, align 4
  %4 = alloca float, align 4
  store float %0, ptr %3, align 4, !tbaa !9
  store float %1, ptr %4, align 4, !tbaa !9
  %5 = load float, ptr %4, align 4, !tbaa !9
  ret float %5
}

; Function Attrs: inlinehint mustprogress uwtable
define linkonce_odr dso_local noundef float @_ZN4pbrt18EvaluatePolynomialIffJfEEET_S1_T0_DpT1_(float noundef %0, float noundef %1, float noundef %2) #3 comdat {
  %4 = alloca float, align 4
  %5 = alloca float, align 4
  %6 = alloca float, align 4
  store float %0, ptr %4, align 4, !tbaa !9
  store float %1, ptr %5, align 4, !tbaa !9
  store float %2, ptr %6, align 4, !tbaa !9
  %7 = load float, ptr %4, align 4, !tbaa !9
  %8 = load float, ptr %4, align 4, !tbaa !9
  %9 = load float, ptr %6, align 4, !tbaa !9
  %10 = call noundef float @_ZN4pbrt18EvaluatePolynomialIffEET_S1_T0_(float noundef %8, float noundef %9)
  %11 = load float, ptr %5, align 4, !tbaa !9
  %12 = call noundef float @_ZN4pbrt3FMAEfff(float noundef %7, float noundef %10, float noundef %11)
  ret float %12
}

; Function Attrs: inlinehint mustprogress uwtable
define linkonce_odr dso_local noundef float @_ZN4pbrt18EvaluatePolynomialIffJffEEET_S1_T0_DpT1_(float noundef %0, float noundef %1, float noundef %2, float noundef %3) #3 comdat {
  %5 = alloca float, align 4
  %6 = alloca float, align 4
  %7 = alloca float, align 4
  %8 = alloca float, align 4
  store float %0, ptr %5, align 4, !tbaa !9
  store float %1, ptr %6, align 4, !tbaa !9
  store float %2, ptr %7, align 4, !tbaa !9
  store float %3, ptr %8, align 4, !tbaa !9
  %9 = load float, ptr %5, align 4, !tbaa !9
  %10 = load float, ptr %5, align 4, !tbaa !9
  %11 = load float, ptr %7, align 4, !tbaa !9
  %12 = load float, ptr %8, align 4, !tbaa !9
  %13 = call noundef float @_ZN4pbrt18EvaluatePolynomialIffJfEEET_S1_T0_DpT1_(float noundef %10, float noundef %11, float noundef %12)
  %14 = load float, ptr %6, align 4, !tbaa !9
  %15 = call noundef float @_ZN4pbrt3FMAEfff(float noundef %9, float noundef %13, float noundef %14)
  ret float %15
}

; Function Attrs: mustprogress nounwind uwtable
define linkonce_odr dso_local noundef float @_ZSt3fmafff(float noundef %0, float noundef %1, float noundef %2) #6 comdat {
  %4 = alloca float, align 4
  %5 = alloca float, align 4
  %6 = alloca float, align 4
  store float %0, ptr %4, align 4, !tbaa !9
  store float %1, ptr %5, align 4, !tbaa !9
  store float %2, ptr %6, align 4, !tbaa !9
  %7 = load float, ptr %4, align 4, !tbaa !9
  %8 = load float, ptr %5, align 4, !tbaa !9
  %9 = load float, ptr %6, align 4, !tbaa !9
  %10 = call float @llvm.fma.f32(float %7, float %8, float %9)
  ret float %10
}

; Function Attrs: inlinehint mustprogress uwtable
define linkonce_odr dso_local noundef float @_ZN4pbrt18EvaluatePolynomialIffJfffEEET_S1_T0_DpT1_(float noundef %0, float noundef %1, float noundef %2, float noundef %3, float noundef %4) #3 comdat {
  %6 = alloca float, align 4
  %7 = alloca float, align 4
  %8 = alloca float, align 4
  %9 = alloca float, align 4
  %10 = alloca float, align 4
  store float %0, ptr %6, align 4, !tbaa !9
  store float %1, ptr %7, align 4, !tbaa !9
  store float %2, ptr %8, align 4, !tbaa !9
  store float %3, ptr %9, align 4, !tbaa !9
  store float %4, ptr %10, align 4, !tbaa !9
  %11 = load float, ptr %6, align 4, !tbaa !9
  %12 = load float, ptr %6, align 4, !tbaa !9
  %13 = load float, ptr %8, align 4, !tbaa !9
  %14 = load float, ptr %9, align 4, !tbaa !9
  %15 = load float, ptr %10, align 4, !tbaa !9
  %16 = call noundef float @_ZN4pbrt18EvaluatePolynomialIffJffEEET_S1_T0_DpT1_(float noundef %12, float noundef %13, float noundef %14, float noundef %15)
  %17 = load float, ptr %7, align 4, !tbaa !9
  %18 = call noundef float @_ZN4pbrt3FMAEfff(float noundef %11, float noundef %16, float noundef %17)
  ret float %18
}

; Function Attrs: inlinehint mustprogress uwtable
define linkonce_odr dso_local noundef float @_ZN4pbrt3FMAEfff(float noundef %0, float noundef %1, float noundef %2) #3 comdat {
  %4 = alloca float, align 4
  %5 = alloca float, align 4
  %6 = alloca float, align 4
  store float %0, ptr %4, align 4, !tbaa !9
  store float %1, ptr %5, align 4, !tbaa !9
  store float %2, ptr %6, align 4, !tbaa !9
  %7 = load float, ptr %4, align 4, !tbaa !9
  %8 = load float, ptr %5, align 4, !tbaa !9
  %9 = load float, ptr %6, align 4, !tbaa !9
  %10 = call noundef float @_ZSt3fmafff(float noundef %7, float noundef %8, float noundef %9)
  ret float %10
}

; Function Attrs: inlinehint mustprogress uwtable
define linkonce_odr dso_local noundef float @_ZN4pbrt18EvaluatePolynomialIffJffffEEET_S1_T0_DpT1_(float noundef %0, float noundef %1, float noundef %2, float noundef %3, float noundef %4, float noundef %5) #3 comdat {
  %7 = alloca float, align 4
  %8 = alloca float, align 4
  %9 = alloca float, align 4
  %10 = alloca float, align 4
  %11 = alloca float, align 4
  %12 = alloca float, align 4
  store float %0, ptr %7, align 4, !tbaa !9
  store float %1, ptr %8, align 4, !tbaa !9
  store float %2, ptr %9, align 4, !tbaa !9
  store float %3, ptr %10, align 4, !tbaa !9
  store float %4, ptr %11, align 4, !tbaa !9
  store float %5, ptr %12, align 4, !tbaa !9
  %13 = load float, ptr %7, align 4, !tbaa !9
  %14 = load float, ptr %7, align 4, !tbaa !9
  %15 = load float, ptr %9, align 4, !tbaa !9
  %16 = load float, ptr %10, align 4, !tbaa !9
  %17 = load float, ptr %11, align 4, !tbaa !9
  %18 = load float, ptr %12, align 4, !tbaa !9
  %19 = call noundef float @_ZN4pbrt18EvaluatePolynomialIffJfffEEET_S1_T0_DpT1_(float noundef %14, float noundef %15, float noundef %16, float noundef %17, float noundef %18)
  %20 = load float, ptr %8, align 4, !tbaa !9
  %21 = call noundef float @_ZN4pbrt3FMAEfff(float noundef %13, float noundef %19, float noundef %20)
  ret float %21
}

; Function Attrs: inlinehint mustprogress nounwind uwtable
define linkonce_odr dso_local noundef float @_ZSt4sqrtf(float noundef %0) #7 comdat {
  %2 = alloca float, align 4
  store float %0, ptr %2, align 4, !tbaa !9
  %3 = load float, ptr %2, align 4, !tbaa !9
  %4 = call float @sqrtf(float noundef %3) #9, !tbaa !23
  ret float %4
}

; Function Attrs: inlinehint mustprogress nounwind uwtable
define linkonce_odr dso_local noundef nonnull align 4 dereferenceable(4) ptr @_ZSt3maxIfERKT_S2_S2_(ptr noundef nonnull align 4 dereferenceable(4) %0, ptr noundef nonnull align 4 dereferenceable(4) %1) #7 comdat {
  %3 = alloca ptr, align 8
  %4 = alloca ptr, align 8
  %5 = alloca ptr, align 8
  store ptr %0, ptr %4, align 8, !tbaa !17
  store ptr %1, ptr %5, align 8, !tbaa !17
  %6 = load ptr, ptr %4, align 8, !tbaa !17
  %7 = load float, ptr %6, align 4, !tbaa !9
  %8 = load ptr, ptr %5, align 8, !tbaa !17
  %9 = load float, ptr %8, align 4, !tbaa !9
  %10 = fcmp olt float %7, %9
  br i1 %10, label %11, label %13

11:                                               ; preds = %2
  %12 = load ptr, ptr %5, align 8, !tbaa !17
  store ptr %12, ptr %3, align 8
  br label %15

13:                                               ; preds = %2
  %14 = load ptr, ptr %4, align 8, !tbaa !17
  store ptr %14, ptr %3, align 8
  br label %15

15:                                               ; preds = %13, %11
  %16 = load ptr, ptr %3, align 8
  ret ptr %16
}

; Function Attrs: mustprogress nounwind uwtable
define linkonce_odr dso_local noundef float @_ZSt5roundf(float noundef %0) #6 comdat {
  %2 = alloca float, align 4
  store float %0, ptr %2, align 4, !tbaa !9
  %3 = load float, ptr %2, align 4, !tbaa !9
  %4 = call float @llvm.round.f32(float %3)
  ret float %4
}

; Function Attrs: inlinehint mustprogress uwtable
define linkonce_odr dso_local noundef float @_ZN4pbrt18EvaluatePolynomialIffJfffffEEET_S1_T0_DpT1_(float noundef %0, float noundef %1, float noundef %2, float noundef %3, float noundef %4, float noundef %5, float noundef %6) #3 comdat {
  %8 = alloca float, align 4
  %9 = alloca float, align 4
  %10 = alloca float, align 4
  %11 = alloca float, align 4
  %12 = alloca float, align 4
  %13 = alloca float, align 4
  %14 = alloca float, align 4
  store float %0, ptr %8, align 4, !tbaa !9
  store float %1, ptr %9, align 4, !tbaa !9
  store float %2, ptr %10, align 4, !tbaa !9
  store float %3, ptr %11, align 4, !tbaa !9
  store float %4, ptr %12, align 4, !tbaa !9
  store float %5, ptr %13, align 4, !tbaa !9
  store float %6, ptr %14, align 4, !tbaa !9
  %15 = load float, ptr %8, align 4, !tbaa !9
  %16 = load float, ptr %8, align 4, !tbaa !9
  %17 = load float, ptr %10, align 4, !tbaa !9
  %18 = load float, ptr %11, align 4, !tbaa !9
  %19 = load float, ptr %12, align 4, !tbaa !9
  %20 = load float, ptr %13, align 4, !tbaa !9
  %21 = load float, ptr %14, align 4, !tbaa !9
  %22 = call noundef float @_ZN4pbrt18EvaluatePolynomialIffJffffEEET_S1_T0_DpT1_(float noundef %16, float noundef %17, float noundef %18, float noundef %19, float noundef %20, float noundef %21)
  %23 = load float, ptr %9, align 4, !tbaa !9
  %24 = call noundef float @_ZN4pbrt3FMAEfff(float noundef %15, float noundef %22, float noundef %23)
  ret float %24
}

; Function Attrs: inlinehint mustprogress uwtable
define linkonce_odr dso_local noundef float @_ZN4pbrt8SafeSqrtEf(float noundef %0) #3 comdat {
  %2 = alloca float, align 4
  %3 = alloca float, align 4
  store float %0, ptr %2, align 4, !tbaa !9
  br label %4

4:                                                ; preds = %1
  br label %5

5:                                                ; preds = %4
  call void @llvm.lifetime.start.p0(i64 4, ptr %3) #9
  store float 0.000000e+00, ptr %3, align 4, !tbaa !9
  %6 = call noundef nonnull align 4 dereferenceable(4) ptr @_ZSt3maxIfERKT_S2_S2_(ptr noundef nonnull align 4 dereferenceable(4) %3, ptr noundef nonnull align 4 dereferenceable(4) %2)
  %7 = load float, ptr %6, align 4, !tbaa !9
  %8 = call noundef float @_ZSt4sqrtf(float noundef %7)
  call void @llvm.lifetime.end.p0(i64 4, ptr %3) #9
  ret float %8
}

; Function Attrs: inlinehint mustprogress nounwind uwtable
define linkonce_odr dso_local noundef float @_ZN4pbrt5ClampIfiiEET_S1_T0_T1_(float noundef %0, i32 noundef %1, i32 noundef %2) #7 comdat {
  %4 = alloca float, align 4
  %5 = alloca float, align 4
  %6 = alloca i32, align 4
  %7 = alloca i32, align 4
  store float %0, ptr %5, align 4, !tbaa !9
  store i32 %1, ptr %6, align 4, !tbaa !23
  store i32 %2, ptr %7, align 4, !tbaa !23
  %8 = load float, ptr %5, align 4, !tbaa !9
  %9 = load i32, ptr %6, align 4, !tbaa !23
  %10 = sitofp i32 %9 to float
  %11 = fcmp olt float %8, %10
  br i1 %11, label %12, label %15

12:                                               ; preds = %3
  %13 = load i32, ptr %6, align 4, !tbaa !23
  %14 = sitofp i32 %13 to float
  store float %14, ptr %4, align 4
  br label %25

15:                                               ; preds = %3
  %16 = load float, ptr %5, align 4, !tbaa !9
  %17 = load i32, ptr %7, align 4, !tbaa !23
  %18 = sitofp i32 %17 to float
  %19 = fcmp ogt float %16, %18
  br i1 %19, label %20, label %23

20:                                               ; preds = %15
  %21 = load i32, ptr %7, align 4, !tbaa !23
  %22 = sitofp i32 %21 to float
  store float %22, ptr %4, align 4
  br label %25

23:                                               ; preds = %15
  %24 = load float, ptr %5, align 4, !tbaa !9
  store float %24, ptr %4, align 4
  br label %25

25:                                               ; preds = %23, %20, %12
  %26 = load float, ptr %4, align 4
  ret float %26
}

; Function Attrs: inlinehint mustprogress uwtable
define linkonce_odr dso_local noundef float @_ZN4pstd5roundEf(float noundef %0) #3 comdat {
  %2 = alloca float, align 4
  store float %0, ptr %2, align 4, !tbaa !9
  %3 = load float, ptr %2, align 4, !tbaa !9
  %4 = call noundef float @_ZSt5roundf(float noundef %3)
  ret float %4
}

; Function Attrs: inlinehint mustprogress uwtable
define linkonce_odr dso_local noundef float @_ZN4pbrt12LinearToSRGBEf(float noundef %0) #3 comdat {
  %2 = alloca float, align 4
  %3 = alloca float, align 4
  %4 = alloca float, align 4
  %5 = alloca float, align 4
  %6 = alloca float, align 4
  store float %0, ptr %3, align 4, !tbaa !9
  %7 = load float, ptr %3, align 4, !tbaa !9
  %8 = fcmp ole float %7, 0x3F69A5C380000000
  br i1 %8, label %9, label %12

9:                                                ; preds = %1
  %10 = load float, ptr %3, align 4, !tbaa !9
  %11 = fmul float 0x4029D70A40000000, %10
  store float %11, ptr %2, align 4
  br label %24

12:                                               ; preds = %1
  call void @llvm.lifetime.start.p0(i64 4, ptr %4) #9
  %13 = load float, ptr %3, align 4, !tbaa !9
  %14 = call noundef float @_ZN4pbrt8SafeSqrtEf(float noundef %13)
  store float %14, ptr %4, align 4, !tbaa !9
  call void @llvm.lifetime.start.p0(i64 4, ptr %5) #9
  %15 = load float, ptr %4, align 4, !tbaa !9
  %16 = call noundef float @_ZN4pbrt18EvaluatePolynomialIffJfffffEEET_S1_T0_DpT1_(float noundef %15, float noundef 0xBF5B929FE0000000, float noundef 0x3FA1AF0E00000000, float noundef 0x3FE874D3C0000000, float noundef 0x4000086E80000000, float noundef 0x3FE82A39C0000000, float noundef 0xBF90974760000000)
  store float %16, ptr %5, align 4, !tbaa !9
  call void @llvm.lifetime.start.p0(i64 4, ptr %6) #9
  %17 = load float, ptr %4, align 4, !tbaa !9
  %18 = call noundef float @_ZN4pbrt18EvaluatePolynomialIffJfffffEEET_S1_T0_DpT1_(float noundef %17, float noundef 0x3E9C0B4880000000, float noundef 0xBF06F08220000000, float noundef 0x3FA1C085C0000000, float noundef 0x3FE3791C00000000, float noundef 0x3FFE5A35A0000000, float noundef 1.000000e+00)
  store float %18, ptr %6, align 4, !tbaa !9
  %19 = load float, ptr %5, align 4, !tbaa !9
  %20 = load float, ptr %6, align 4, !tbaa !9
  %21 = fdiv float %19, %20
  %22 = load float, ptr %3, align 4, !tbaa !9
  %23 = fmul float %21, %22
  store float %23, ptr %2, align 4
  call void @llvm.lifetime.end.p0(i64 4, ptr %6) #9
  call void @llvm.lifetime.end.p0(i64 4, ptr %5) #9
  call void @llvm.lifetime.end.p0(i64 4, ptr %4) #9
  br label %24

24:                                               ; preds = %12, %9
  %25 = load float, ptr %2, align 4
  ret float %25
}

; Function Attrs: mustprogress nounwind uwtable
define linkonce_odr dso_local noundef nonnull align 1 dereferenceable(1) ptr @_ZN4pstd4spanIhEixEm(ptr noundef nonnull align 8 dereferenceable(16) %0, i64 noundef %1) #6 comdat align 2 {
  %3 = alloca ptr, align 8
  %4 = alloca i64, align 8
  store ptr %0, ptr %3, align 8, !tbaa !75
  store i64 %1, ptr %4, align 8, !tbaa !39
  %5 = load ptr, ptr %3, align 8
  br label %6

6:                                                ; preds = %2
  br label %7

7:                                                ; preds = %6
  %8 = getelementptr inbounds nuw %"class.pstd::span.1", ptr %5, i32 0, i32 0
  %9 = load ptr, ptr %8, align 8, !tbaa !77
  %10 = load i64, ptr %4, align 8, !tbaa !39
  %11 = getelementptr inbounds nuw i8, ptr %9, i64 %10
  ret ptr %11
}

; Function Attrs: inlinehint mustprogress uwtable
define linkonce_odr dso_local noundef zeroext i8 @_ZN4pbrt13LinearToSRGB8Eff(float noundef %0, float noundef %1) #3 comdat {
  %3 = alloca i8, align 1
  %4 = alloca float, align 4
  %5 = alloca float, align 4
  store float %0, ptr %4, align 4, !tbaa !9
  store float %1, ptr %5, align 4, !tbaa !9
  %6 = load float, ptr %4, align 4, !tbaa !9
  %7 = fcmp ole float %6, 0.000000e+00
  br i1 %7, label %8, label %9

8:                                                ; preds = %2
  store i8 0, ptr %3, align 1
  br label %22

9:                                                ; preds = %2
  %10 = load float, ptr %4, align 4, !tbaa !9
  %11 = fcmp oge float %10, 1.000000e+00
  br i1 %11, label %12, label %13

12:                                               ; preds = %9
  store i8 -1, ptr %3, align 1
  br label %22

13:                                               ; preds = %9
  %14 = load float, ptr %4, align 4, !tbaa !9
  %15 = call noundef float @_ZN4pbrt12LinearToSRGBEf(float noundef %14)
  %16 = fmul float 2.550000e+02, %15
  %17 = load float, ptr %5, align 4, !tbaa !9
  %18 = fadd float %16, %17
  %19 = call noundef float @_ZN4pstd5roundEf(float noundef %18)
  %20 = call noundef float @_ZN4pbrt5ClampIfiiEET_S1_T0_T1_(float noundef %19, i32 noundef 0, i32 noundef 255)
  %21 = fptoui float %20 to i8
  store i8 %21, ptr %3, align 1
  br label %22

22:                                               ; preds = %13, %12, %8
  %23 = load i8, ptr %3, align 1
  ret i8 %23
}

; Function Attrs: mustprogress nounwind uwtable
define linkonce_odr dso_local noundef nonnull align 4 dereferenceable(4) ptr @_ZN4pstd4spanIKfEixEm(ptr noundef nonnull align 8 dereferenceable(16) %0, i64 noundef %1) #6 comdat align 2 {
  %3 = alloca ptr, align 8
  %4 = alloca i64, align 8
  store ptr %0, ptr %3, align 8, !tbaa !70
  store i64 %1, ptr %4, align 8, !tbaa !39
  %5 = load ptr, ptr %3, align 8
  br label %6

6:                                                ; preds = %2
  br label %7

7:                                                ; preds = %6
  %8 = getelementptr inbounds nuw %"class.pstd::span", ptr %5, i32 0, i32 0
  %9 = load ptr, ptr %8, align 8, !tbaa !74
  %10 = load i64, ptr %4, align 8, !tbaa !39
  %11 = getelementptr inbounds nuw float, ptr %9, i64 %10
  ret ptr %11
}

; Function Attrs: mustprogress nounwind uwtable
define linkonce_odr dso_local noundef i64 @_ZNK4pstd4spanIKfE4sizeEv(ptr noundef nonnull align 8 dereferenceable(16) %0) #6 comdat align 2 {
  %2 = alloca ptr, align 8
  store ptr %0, ptr %2, align 8, !tbaa !70
  %3 = load ptr, ptr %2, align 8
  %4 = getelementptr inbounds nuw %"class.pstd::span", ptr %3, i32 0, i32 1
  %5 = load i64, ptr %4, align 8, !tbaa !72
  ret i64 %5
}

; Function Attrs: mustprogress uwtable
define dso_local void @_ZNK4pbrt17sRGBColorEncoding10FromLinearEN4pstd4spanIKfEENS2_IhEE(ptr noundef nonnull align 1 dereferenceable(1) %0, ptr %1, i64 %2, ptr %3, i64 %4) #1 align 2 {
  %6 = alloca %"class.pstd::span", align 8
  %7 = alloca %"class.pstd::span.1", align 8
  %8 = alloca ptr, align 8
  %9 = alloca i64, align 8
  %10 = getelementptr inbounds nuw { ptr, i64 }, ptr %6, i32 0, i32 0
  store ptr %1, ptr %10, align 8
  %11 = getelementptr inbounds nuw { ptr, i64 }, ptr %6, i32 0, i32 1
  store i64 %2, ptr %11, align 8
  %12 = getelementptr inbounds nuw { ptr, i64 }, ptr %7, i32 0, i32 0
  store ptr %3, ptr %12, align 8
  %13 = getelementptr inbounds nuw { ptr, i64 }, ptr %7, i32 0, i32 1
  store i64 %4, ptr %13, align 8
  store ptr %0, ptr %8, align 8, !tbaa !66
  br label %14

14:                                               ; preds = %5
  br label %15

15:                                               ; preds = %14
  call void @llvm.lifetime.start.p0(i64 8, ptr %9) #9
  store i64 0, ptr %9, align 8, !tbaa !39
  br label %16

16:                                               ; preds = %28, %15
  %17 = load i64, ptr %9, align 8, !tbaa !39
  %18 = call noundef i64 @_ZNK4pstd4spanIKfE4sizeEv(ptr noundef nonnull align 8 dereferenceable(16) %6)
  %19 = icmp ult i64 %17, %18
  br i1 %19, label %21, label %20

20:                                               ; preds = %16
  call void @llvm.lifetime.end.p0(i64 8, ptr %9) #9
  br label %31

21:                                               ; preds = %16
  %22 = load i64, ptr %9, align 8, !tbaa !39
  %23 = call noundef nonnull align 4 dereferenceable(4) ptr @_ZN4pstd4spanIKfEixEm(ptr noundef nonnull align 8 dereferenceable(16) %6, i64 noundef %22)
  %24 = load float, ptr %23, align 4, !tbaa !9
  %25 = call noundef zeroext i8 @_ZN4pbrt13LinearToSRGB8Eff(float noundef %24, float noundef 0.000000e+00)
  %26 = load i64, ptr %9, align 8, !tbaa !39
  %27 = call noundef nonnull align 1 dereferenceable(1) ptr @_ZN4pstd4spanIhEixEm(ptr noundef nonnull align 8 dereferenceable(16) %7, i64 noundef %26)
  store i8 %25, ptr %27, align 1, !tbaa !68
  br label %28

28:                                               ; preds = %21
  %29 = load i64, ptr %9, align 8, !tbaa !39
  %30 = add i64 %29, 1
  store i64 %30, ptr %9, align 8, !tbaa !39
  br label %16, !llvm.loop !69

31:                                               ; preds = %20
  ret void
}