; Function Attrs: mustprogress nofree norecurse nosync nounwind memory(argmem: readwrite) uwtable
define dso_local void @_ZNK4pbrt17sRGBColorEncoding10FromLinearEN4pstd4spanIKfEENS2_IhEE(ptr noundef nonnull readnone align 1 captures(none) dereferenceable(1) %0, ptr readonly captures(none) %1, i64 %2, ptr writeonly captures(none) %3, i64 %4) local_unnamed_addr #5 align 2 {
  %.not = icmp eq i64 %2, 0
  br i1 %.not, label %._crit_edge, label %.lr.ph

._crit_edge:                                      ; preds = %_ZN4pbrt13LinearToSRGB8Eff.exit, %5
  ret void

.lr.ph:                                           ; preds = %5, %_ZN4pbrt13LinearToSRGB8Eff.exit
  %.06 = phi i64 [ %34, %_ZN4pbrt13LinearToSRGB8Eff.exit ], [ 0, %5 ]
  %6 = getelementptr inbounds nuw float, ptr %1, i64 %.06
  %7 = load float, ptr %6, align 4, !tbaa !26
  %8 = fcmp ugt float %7, 0.000000e+00
  br i1 %8, label %9, label %_ZN4pbrt13LinearToSRGB8Eff.exit

9:                                                ; preds = %.lr.ph
  %10 = fcmp ult float %7, 1.000000e+00
  br i1 %10, label %11, label %_ZN4pbrt13LinearToSRGB8Eff.exit

11:                                               ; preds = %9
  %12 = fcmp ugt float %7, 0x3F69A5C380000000
  br i1 %12, label %13, label %_ZN4pbrt12LinearToSRGBEf.exit.i

13:                                               ; preds = %11
  %14 = fcmp ogt float %7, 0.000000e+00
  %.sroa.speculated.i.i.i = select i1 %14, float %7, float 0.000000e+00
  %sqrt.i.i.i = tail call noundef float @llvm.sqrt.f32(float %.sroa.speculated.i.i.i)
  %15 = tail call noundef float @llvm.fma.f32(float %sqrt.i.i.i, float 0xBF90974760000000, float 0x3FE82A39C0000000)
  %16 = tail call noundef float @llvm.fma.f32(float %sqrt.i.i.i, float %15, float 0x4000086E80000000)
  %17 = tail call noundef float @llvm.fma.f32(float %sqrt.i.i.i, float %16, float 0x3FE874D3C0000000)
  %18 = tail call noundef float @llvm.fma.f32(float %sqrt.i.i.i, float %17, float 0x3FA1AF0E00000000)
  %19 = tail call noundef float @llvm.fma.f32(float %sqrt.i.i.i, float %18, float 0xBF5B929FE0000000)
  %20 = fadd float %sqrt.i.i.i, 0x3FFE5A35A0000000
  %21 = tail call noundef float @llvm.fma.f32(float %sqrt.i.i.i, float %20, float 0x3FE3791C00000000)
  %22 = tail call noundef float @llvm.fma.f32(float %sqrt.i.i.i, float %21, float 0x3FA1C085C0000000)
  %23 = tail call noundef float @llvm.fma.f32(float %sqrt.i.i.i, float %22, float 0xBF06F08220000000)
  %24 = tail call noundef float @llvm.fma.f32(float %sqrt.i.i.i, float %23, float 0x3E9C0B4880000000)
  %25 = fdiv float %19, %24
  br label %_ZN4pbrt12LinearToSRGBEf.exit.i

_ZN4pbrt12LinearToSRGBEf.exit.i:                  ; preds = %13, %11
  %.sink.i.i = phi float [ %25, %13 ], [ 0x4029D70A40000000, %11 ]
  %26 = fmul float %7, %.sink.i.i
  %27 = fmul float %26, 2.550000e+02
  %28 = fadd float %27, 0.000000e+00
  %29 = tail call noundef float @llvm.round.f32(float %28)
  %30 = fcmp olt float %29, 0.000000e+00
  %31 = fcmp ogt float %29, 2.550000e+02
  %..i.i = select i1 %31, float 2.550000e+02, float %29
  %.0.i.i = select i1 %30, float 0.000000e+00, float %..i.i
  %32 = fptoui float %.0.i.i to i8
  br label %_ZN4pbrt13LinearToSRGB8Eff.exit

_ZN4pbrt13LinearToSRGB8Eff.exit:                  ; preds = %.lr.ph, %9, %_ZN4pbrt12LinearToSRGBEf.exit.i
  %.0.i = phi i8 [ %32, %_ZN4pbrt12LinearToSRGBEf.exit.i ], [ 0, %.lr.ph ], [ -1, %9 ]
  %33 = getelementptr inbounds nuw i8, ptr %3, i64 %.06
  store i8 %.0.i, ptr %33, align 1, !tbaa !16
  %34 = add nuw i64 %.06, 1
  %exitcond.not = icmp eq i64 %34, %2
  br i1 %exitcond.not, label %._crit_edge, label %.lr.ph, !llvm.loop !45
}